; Function Attrs: nounwind uwtable
define internal noundef i32 @lj_cf_buffer_method_decode(ptr noundef %0) #0 {
  %2 = getelementptr inbounds nuw i8, ptr %0, i64 32
  %3 = load ptr, ptr %2, align 8, !tbaa !4
  %4 = getelementptr inbounds nuw i8, ptr %0, i64 40
  %5 = load ptr, ptr %4, align 8, !tbaa !14
  %6 = icmp ult ptr %3, %5
  br i1 %6, label %7, label %16

7:                                                ; preds = %1
  %8 = load i64, ptr %3, align 8, !tbaa !15
  %.mask.i = and i64 %8, -140737488355328
  %9 = icmp eq i64 %.mask.i, -1829587348619264
  br i1 %9, label %10, label %16

10:                                               ; preds = %7
  %11 = and i64 %8, 140737488355327
  %12 = inttoptr i64 %11 to ptr
  %13 = getelementptr inbounds nuw i8, ptr %12, i64 10
  %14 = load i8, ptr %13, align 2, !tbaa !15
  %15 = icmp eq i8 %14, 3
  br i1 %15, label %buffer_tobuf.exit, label %16

16:                                               ; preds = %10, %7, %1
  tail call void @lj_err_argtype(ptr noundef nonnull %0, i32 noundef 1, ptr noundef nonnull @.str.2) #7
  unreachable

buffer_tobuf.exit:                                ; preds = %10
  %17 = getelementptr inbounds nuw i8, ptr %12, i64 48
  %18 = ptrtoint ptr %0 to i64
  %19 = getelementptr inbounds nuw i8, ptr %12, i64 72
  %20 = load i64, ptr %19, align 8, !tbaa !16
  %21 = and i64 %20, 7
  %22 = or i64 %21, %18
  store i64 %22, ptr %19, align 8, !tbaa !16
  %23 = getelementptr inbounds nuw i8, ptr %5, i64 8
  store ptr %23, ptr %4, align 8, !tbaa !14
  store i64 -1, ptr %5, align 8, !tbaa !15
  %24 = load ptr, ptr %4, align 8, !tbaa !14
  %25 = getelementptr inbounds i8, ptr %24, i64 -8
  %26 = tail call ptr @lj_serialize_get(ptr noundef nonnull %17, ptr noundef nonnull %25) #6
  %27 = getelementptr inbounds nuw i8, ptr %12, i64 88
  store ptr %26, ptr %27, align 8, !tbaa !35
  %28 = getelementptr inbounds nuw i8, ptr %0, i64 16
  %29 = load i64, ptr %28, align 8, !tbaa !19
  %30 = inttoptr i64 %29 to ptr
  %31 = getelementptr inbounds nuw i8, ptr %30, i64 16
  %32 = load i64, ptr %31, align 8, !tbaa !22
  %33 = getelementptr inbounds nuw i8, ptr %30, i64 24
  %34 = load i64, ptr %33, align 8, !tbaa !51
  %.not = icmp ult i64 %32, %34
  br i1 %.not, label %37, label %35, !prof !52

35:                                               ; preds = %buffer_tobuf.exit
  %36 = tail call i32 @lj_gc_step(ptr noundef nonnull %0) #6
  br label %37

37:                                               ; preds = %35, %buffer_tobuf.exit
  ret i32 1
}